; Function Attrs: nounwind uwtable
define internal range(i32 0, 2) i32 @ml_kem_has(ptr noundef readonly captures(address_is_null) %0, i32 noundef %1) #0 {
  %3 = tail call i32 @ossl_prov_is_running() #7
  %4 = icmp eq i32 %3, 0
  %5 = icmp eq ptr %0, null
  %or.cond = or i1 %5, %4
  br i1 %or.cond, label %13, label %6

6:                                                ; preds = %2
  %7 = and i32 %1, 3
  switch i32 %7, label %8 [
    i32 0, label %13
    i32 2, label %.sink.split
  ]

8:                                                ; preds = %6
  br label %.sink.split

.sink.split:                                      ; preds = %6, %8
  %.sink = phi i64 [ 80, %8 ], [ 64, %6 ]
  %9 = getelementptr inbounds nuw i8, ptr %0, i64 %.sink
  %10 = load ptr, ptr %9, align 8, !tbaa !36
  %11 = icmp ne ptr %10, null
  %12 = zext i1 %11 to i32
  br label %13

13:                                               ; preds = %.sink.split, %6, %2
  %.0.shrunk = phi i32 [ 0, %2 ], [ 1, %6 ], [ %12, %.sink.split ]
  ret i32 %.0.shrunk
}